target datalayout = "e-m:e-p270:32:32-p271:32:32-p272:64:64-i64:64-i128:128-f80:128-n8:16:32:64-S128"
target triple = "x86_64-pc-linux-gnu"

%struct.H5T_t = type { %struct.H5O_shared_t, ptr, %struct.H5O_loc_t, %struct.H5G_name_t, ptr }
%struct.H5O_shared_t = type { i32, ptr, i32, %union.anon }
%union.anon = type { %struct.H5O_mesg_loc_t }
%struct.H5O_mesg_loc_t = type { i32, i64 }
%struct.H5O_loc_t = type { ptr, i64, i8 }
%struct.H5G_name_t = type { ptr, ptr, i32 }
%struct.H5T_shared_t = type { i64, i32, i32, i64, i32, i8, ptr, ptr, %union.anon.0 }
%union.anon.0 = type { %struct.H5T_array_t }
%struct.H5T_array_t = type { i64, i32, [32 x i64] }
%struct.H5T_compnd_t = type { i32, i32, i32, i8, ptr, i64 }
%struct.H5T_cmemb_t = type { ptr, i64, i64, ptr }
%struct.H5T_vlen_t = type { i32, i32, i32, i32, ptr, ptr }

; Function Attrs: nounwind uwtable
define i32 @H5T_detect_class(ptr noundef %0, i32 noundef %1, i1 noundef zeroext %2) #0 {
  %4 = alloca ptr, align 8
  %5 = alloca i32, align 4
  %6 = alloca i8, align 1
  %7 = alloca i32, align 4
  %8 = alloca i32, align 4
  %9 = alloca i32, align 4
  store ptr %0, ptr %4, align 8
  store i32 %1, ptr %5, align 4
  %10 = zext i1 %2 to i8
  store i8 %10, ptr %6, align 1
  store i32 0, ptr %8, align 4
  %11 = load i8, ptr %6, align 1
  %12 = trunc i8 %11 to i1
  br i1 %12, label %13, label %34

13:                                               ; preds = %3
  %14 = load ptr, ptr %4, align 8
  %15 = getelementptr inbounds %struct.H5T_t, ptr %14, i32 0, i32 1
  %16 = load ptr, ptr %15, align 8
  %17 = getelementptr inbounds %struct.H5T_shared_t, ptr %16, i32 0, i32 2
  %18 = load i32, ptr %17, align 4
  %19 = icmp eq i32 9, %18
  br i1 %19, label %20, label %34

20:                                               ; preds = %13
  %21 = load ptr, ptr %4, align 8
  %22 = getelementptr inbounds %struct.H5T_t, ptr %21, i32 0, i32 1
  %23 = load ptr, ptr %22, align 8
  %24 = getelementptr inbounds %struct.H5T_shared_t, ptr %23, i32 0, i32 8
  %25 = getelementptr inbounds %struct.H5T_vlen_t, ptr %24, i32 0, i32 0
  %26 = load i32, ptr %25, align 8
  %27 = icmp eq i32 1, %26
  br i1 %27, label %28, label %34

28:                                               ; preds = %20
  br label %29

29:                                               ; preds = %28
  %30 = load i32, ptr %5, align 4
  %31 = icmp eq i32 3, %30
  %32 = zext i1 %31 to i32
  store i32 %32, ptr %8, align 4
  br label %209

33:                                               ; No predecessors!
  br label %34

34:                                               ; preds = %33, %20, %13, %3
  %35 = load ptr, ptr %4, align 8
  %36 = getelementptr inbounds %struct.H5T_t, ptr %35, i32 0, i32 1
  %37 = load ptr, ptr %36, align 8
  %38 = getelementptr inbounds %struct.H5T_shared_t, ptr %37, i32 0, i32 2
  %39 = load i32, ptr %38, align 4
  %40 = load i32, ptr %5, align 4
  %41 = icmp eq i32 %39, %40
  br i1 %41, label %42, label %45

42:                                               ; preds = %34
  br label %43

43:                                               ; preds = %42
  store i32 1, ptr %8, align 4
  br label %209

44:                                               ; No predecessors!
  br label %45

45:                                               ; preds = %44, %34
  %46 = load ptr, ptr %4, align 8
  %47 = getelementptr inbounds %struct.H5T_t, ptr %46, i32 0, i32 1
  %48 = load ptr, ptr %47, align 8
  %49 = getelementptr inbounds %struct.H5T_shared_t, ptr %48, i32 0, i32 2
  %50 = load i32, ptr %49, align 4
  switch i32 %50, label %207 [
    i32 6, label %51
    i32 10, label %194
    i32 9, label %194
    i32 8, label %194
    i32 -1, label %206
    i32 0, label %206
    i32 1, label %206
    i32 2, label %206
    i32 3, label %206
    i32 4, label %206
    i32 5, label %206
    i32 7, label %206
    i32 11, label %206
  ]

51:                                               ; preds = %45
  store i32 0, ptr %7, align 4
  br label %52

52:                                               ; preds = %190, %51
  %53 = load i32, ptr %7, align 4
  %54 = load ptr, ptr %4, align 8
  %55 = getelementptr inbounds %struct.H5T_t, ptr %54, i32 0, i32 1
  %56 = load ptr, ptr %55, align 8
  %57 = getelementptr inbounds %struct.H5T_shared_t, ptr %56, i32 0, i32 8
  %58 = getelementptr inbounds %struct.H5T_compnd_t, ptr %57, i32 0, i32 1
  %59 = load i32, ptr %58, align 4
  %60 = icmp ult i32 %53, %59
  br i1 %60, label %61, label %193

61:                                               ; preds = %52
  %62 = load ptr, ptr %4, align 8
  %63 = getelementptr inbounds %struct.H5T_t, ptr %62, i32 0, i32 1
  %64 = load ptr, ptr %63, align 8
  %65 = getelementptr inbounds %struct.H5T_shared_t, ptr %64, i32 0, i32 8
  %66 = getelementptr inbounds %struct.H5T_compnd_t, ptr %65, i32 0, i32 4
  %67 = load ptr, ptr %66, align 8
  %68 = load i32, ptr %7, align 4
  %69 = zext i32 %68 to i64
  %70 = getelementptr inbounds %struct.H5T_cmemb_t, ptr %67, i64 %69
  %71 = getelementptr inbounds %struct.H5T_cmemb_t, ptr %70, i32 0, i32 3
  %72 = load ptr, ptr %71, align 8
  %73 = getelementptr inbounds %struct.H5T_t, ptr %72, i32 0, i32 1
  %74 = load ptr, ptr %73, align 8
  %75 = getelementptr inbounds %struct.H5T_shared_t, ptr %74, i32 0, i32 2
  %76 = load i32, ptr %75, align 4
  %77 = load i32, ptr %5, align 4
  %78 = icmp eq i32 %76, %77
  br i1 %78, label %79, label %82

79:                                               ; preds = %61
  br label %80

80:                                               ; preds = %79
  store i32 1, ptr %8, align 4
  br label %209

81:                                               ; No predecessors!
  br label %82

82:                                               ; preds = %81, %61
  %83 = load ptr, ptr %4, align 8
  %84 = getelementptr inbounds %struct.H5T_t, ptr %83, i32 0, i32 1
  %85 = load ptr, ptr %84, align 8
  %86 = getelementptr inbounds %struct.H5T_shared_t, ptr %85, i32 0, i32 8
  %87 = getelementptr inbounds %struct.H5T_compnd_t, ptr %86, i32 0, i32 4
  %88 = load ptr, ptr %87, align 8
  %89 = load i32, ptr %7, align 4
  %90 = zext i32 %89 to i64
  %91 = getelementptr inbounds %struct.H5T_cmemb_t, ptr %88, i64 %90
  %92 = getelementptr inbounds %struct.H5T_cmemb_t, ptr %91, i32 0, i32 3
  %93 = load ptr, ptr %92, align 8
  %94 = getelementptr inbounds %struct.H5T_t, ptr %93, i32 0, i32 1
  %95 = load ptr, ptr %94, align 8
  %96 = getelementptr inbounds %struct.H5T_shared_t, ptr %95, i32 0, i32 2
  %97 = load i32, ptr %96, align 4
  %98 = icmp eq i32 %97, 6
  br i1 %98, label %167, label %99

99:                                               ; preds = %82
  %100 = load ptr, ptr %4, align 8
  %101 = getelementptr inbounds %struct.H5T_t, ptr %100, i32 0, i32 1
  %102 = load ptr, ptr %101, align 8
  %103 = getelementptr inbounds %struct.H5T_shared_t, ptr %102, i32 0, i32 8
  %104 = getelementptr inbounds %struct.H5T_compnd_t, ptr %103, i32 0, i32 4
  %105 = load ptr, ptr %104, align 8
  %106 = load i32, ptr %7, align 4
  %107 = zext i32 %106 to i64
  %108 = getelementptr inbounds %struct.H5T_cmemb_t, ptr %105, i64 %107
  %109 = getelementptr inbounds %struct.H5T_cmemb_t, ptr %108, i32 0, i32 3
  %110 = load ptr, ptr %109, align 8
  %111 = getelementptr inbounds %struct.H5T_t, ptr %110, i32 0, i32 1
  %112 = load ptr, ptr %111, align 8
  %113 = getelementptr inbounds %struct.H5T_shared_t, ptr %112, i32 0, i32 2
  %114 = load i32, ptr %113, align 4
  %115 = icmp eq i32 %114, 8
  br i1 %115, label %167, label %116

116:                                              ; preds = %99
  %117 = load ptr, ptr %4, align 8
  %118 = getelementptr inbounds %struct.H5T_t, ptr %117, i32 0, i32 1
  %119 = load ptr, ptr %118, align 8
  %120 = getelementptr inbounds %struct.H5T_shared_t, ptr %119, i32 0, i32 8
  %121 = getelementptr inbounds %struct.H5T_compnd_t, ptr %120, i32 0, i32 4
  %122 = load ptr, ptr %121, align 8
  %123 = load i32, ptr %7, align 4
  %124 = zext i32 %123 to i64
  %125 = getelementptr inbounds %struct.H5T_cmemb_t, ptr %122, i64 %124
  %126 = getelementptr inbounds %struct.H5T_cmemb_t, ptr %125, i32 0, i32 3
  %127 = load ptr, ptr %126, align 8
  %128 = getelementptr inbounds %struct.H5T_t, ptr %127, i32 0, i32 1
  %129 = load ptr, ptr %128, align 8
  %130 = getelementptr inbounds %struct.H5T_shared_t, ptr %129, i32 0, i32 2
  %131 = load i32, ptr %130, align 4
  %132 = icmp eq i32 %131, 9
  br i1 %132, label %167, label %133

133:                                              ; preds = %116
  %134 = load ptr, ptr %4, align 8
  %135 = getelementptr inbounds %struct.H5T_t, ptr %134, i32 0, i32 1
  %136 = load ptr, ptr %135, align 8
  %137 = getelementptr inbounds %struct.H5T_shared_t, ptr %136, i32 0, i32 8
  %138 = getelementptr inbounds %struct.H5T_compnd_t, ptr %137, i32 0, i32 4
  %139 = load ptr, ptr %138, align 8
  %140 = load i32, ptr %7, align 4
  %141 = zext i32 %140 to i64
  %142 = getelementptr inbounds %struct.H5T_cmemb_t, ptr %139, i64 %141
  %143 = getelementptr inbounds %struct.H5T_cmemb_t, ptr %142, i32 0, i32 3
  %144 = load ptr, ptr %143, align 8
  %145 = getelementptr inbounds %struct.H5T_t, ptr %144, i32 0, i32 1
  %146 = load ptr, ptr %145, align 8
  %147 = getelementptr inbounds %struct.H5T_shared_t, ptr %146, i32 0, i32 2
  %148 = load i32, ptr %147, align 4
  %149 = icmp eq i32 %148, 10
  br i1 %149, label %167, label %150

150:                                              ; preds = %133
  %151 = load ptr, ptr %4, align 8
  %152 = getelementptr inbounds %struct.H5T_t, ptr %151, i32 0, i32 1
  %153 = load ptr, ptr %152, align 8
  %154 = getelementptr inbounds %struct.H5T_shared_t, ptr %153, i32 0, i32 8
  %155 = getelementptr inbounds %struct.H5T_compnd_t, ptr %154, i32 0, i32 4
  %156 = load ptr, ptr %155, align 8
  %157 = load i32, ptr %7, align 4
  %158 = zext i32 %157 to i64
  %159 = getelementptr inbounds %struct.H5T_cmemb_t, ptr %156, i64 %158
  %160 = getelementptr inbounds %struct.H5T_cmemb_t, ptr %159, i32 0, i32 3
  %161 = load ptr, ptr %160, align 8
  %162 = getelementptr inbounds %struct.H5T_t, ptr %161, i32 0, i32 1
  %163 = load ptr, ptr %162, align 8
  %164 = getelementptr inbounds %struct.H5T_shared_t, ptr %163, i32 0, i32 2
  %165 = load i32, ptr %164, align 4
  %166 = icmp eq i32 %165, 7
  br i1 %166, label %167, label %189

167:                                              ; preds = %150, %133, %116, %99, %82
  %168 = load ptr, ptr %4, align 8
  %169 = getelementptr inbounds %struct.H5T_t, ptr %168, i32 0, i32 1
  %170 = load ptr, ptr %169, align 8
  %171 = getelementptr inbounds %struct.H5T_shared_t, ptr %170, i32 0, i32 8
  %172 = getelementptr inbounds %struct.H5T_compnd_t, ptr %171, i32 0, i32 4
  %173 = load ptr, ptr %172, align 8
  %174 = load i32, ptr %7, align 4
  %175 = zext i32 %174 to i64
  %176 = getelementptr inbounds %struct.H5T_cmemb_t, ptr %173, i64 %175
  %177 = getelementptr inbounds %struct.H5T_cmemb_t, ptr %176, i32 0, i32 3
  %178 = load ptr, ptr %177, align 8
  %179 = load i32, ptr %5, align 4
  %180 = load i8, ptr %6, align 1
  %181 = trunc i8 %180 to i1
  %182 = call i32 @H5T_detect_class(ptr noundef %178, i32 noundef %179, i1 noundef zeroext %181)
  store i32 %182, ptr %9, align 4
  %183 = icmp ne i32 %182, 0
  br i1 %183, label %184, label %188

184:                                              ; preds = %167
  br label %185

185:                                              ; preds = %184
  %186 = load i32, ptr %9, align 4
  store i32 %186, ptr %8, align 4
  br label %209

187:                                              ; No predecessors!
  br label %188

188:                                              ; preds = %187, %167
  br label %189

189:                                              ; preds = %188, %150
  br label %190

190:                                              ; preds = %189
  %191 = load i32, ptr %7, align 4
  %192 = add i32 %191, 1
  store i32 %192, ptr %7, align 4
  br label %52

193:                                              ; preds = %52
  br label %208

194:                                              ; preds = %45, %45, %45
  br label %195

195:                                              ; preds = %194
  %196 = load ptr, ptr %4, align 8
  %197 = getelementptr inbounds %struct.H5T_t, ptr %196, i32 0, i32 1
  %198 = load ptr, ptr %197, align 8
  %199 = getelementptr inbounds %struct.H5T_shared_t, ptr %198, i32 0, i32 6
  %200 = load ptr, ptr %199, align 8
  %201 = load i32, ptr %5, align 4
  %202 = load i8, ptr %6, align 1
  %203 = trunc i8 %202 to i1
  %204 = call i32 @H5T_detect_class(ptr noundef %200, i32 noundef %201, i1 noundef zeroext %203)
  store i32 %204, ptr %8, align 4
  br label %209

205:                                              ; No predecessors!
  br label %208

206:                                              ; preds = %45, %45, %45, %45, %45, %45, %45, %45, %45
  br label %207

207:                                              ; preds = %206, %45
  br label %208

208:                                              ; preds = %207, %205, %193
  br label %209

209:                                              ; preds = %208, %195, %185, %80, %43, %29
  %210 = load i32, ptr %8, align 4
  ret i32 %210
}