; Function Attrs: nofree nosync nounwind memory(read, inaccessiblemem: none) uwtable
define i32 @H5T_detect_class(ptr nocapture noundef readonly %0, i32 noundef %1, i1 noundef zeroext %2) local_unnamed_addr #6 {
  br i1 %2, label %tailrecurse.us, label %.split

tailrecurse.us:                                   ; preds = %3, %16
  %.tr.us = phi ptr [ %18, %16 ], [ %0, %3 ]
  %4 = getelementptr inbounds i8, ptr %.tr.us, i64 40
  %5 = load ptr, ptr %4, align 8
  %6 = getelementptr inbounds i8, ptr %5, i64 12
  %7 = load i32, ptr %6, align 4
  %8 = icmp eq i32 %7, 9
  br i1 %8, label %9, label %13

9:                                                ; preds = %tailrecurse.us
  %10 = getelementptr inbounds i8, ptr %5, i64 48
  %11 = load i32, ptr %10, align 8
  %12 = icmp eq i32 %11, 1
  br i1 %12, label %.split42.us, label %13

13:                                               ; preds = %9, %tailrecurse.us
  %14 = icmp eq i32 %7, %1
  br i1 %14, label %.loopexit, label %15

15:                                               ; preds = %13
  switch i32 %7, label %.loopexit [
    i32 6, label %.preheader
    i32 10, label %16
    i32 9, label %16
    i32 8, label %16
  ]

16:                                               ; preds = %15, %15, %15
  %17 = getelementptr inbounds i8, ptr %5, i64 32
  %18 = load ptr, ptr %17, align 8
  br label %tailrecurse.us

.split:                                           ; preds = %3
  %19 = getelementptr inbounds i8, ptr %0, i64 40
  %20 = load ptr, ptr %19, align 8
  %21 = getelementptr inbounds i8, ptr %20, i64 12
  %22 = load i32, ptr %21, align 4
  %23 = icmp eq i32 %22, %1
  br i1 %23, label %.loopexit, label %.lr.ph

.split42.us:                                      ; preds = %9
  %24 = icmp eq i32 %1, 3
  %25 = zext i1 %24 to i32
  br label %.loopexit

.lr.ph:                                           ; preds = %.split, %tailrecurse
  %26 = phi i32 [ %49, %tailrecurse ], [ %22, %.split ]
  %27 = phi ptr [ %47, %tailrecurse ], [ %20, %.split ]
  switch i32 %26, label %.loopexit [
    i32 6, label %.preheader
    i32 10, label %tailrecurse
    i32 9, label %tailrecurse
    i32 8, label %tailrecurse
  ]

.preheader:                                       ; preds = %.lr.ph, %15
  %.us-phi43 = phi ptr [ %5, %15 ], [ %27, %.lr.ph ]
  %28 = getelementptr inbounds i8, ptr %.us-phi43, i64 52
  %29 = load i32, ptr %28, align 4
  %.not52 = icmp eq i32 %29, 0
  br i1 %.not52, label %.loopexit, label %.lr.ph46

.lr.ph46:                                         ; preds = %.preheader
  %30 = getelementptr inbounds i8, ptr %.us-phi43, i64 64
  %31 = load ptr, ptr %30, align 8
  %wide.trip.count = zext i32 %29 to i64
  br label %32

32:                                               ; preds = %.lr.ph46, %43
  %indvars.iv = phi i64 [ 0, %.lr.ph46 ], [ %indvars.iv.next, %43 ]
  %33 = getelementptr inbounds %struct.H5T_cmemb_t, ptr %31, i64 %indvars.iv, i32 3
  %34 = load ptr, ptr %33, align 8
  %35 = getelementptr inbounds i8, ptr %34, i64 40
  %36 = load ptr, ptr %35, align 8
  %37 = getelementptr inbounds i8, ptr %36, i64 12
  %38 = load i32, ptr %37, align 4
  %39 = icmp eq i32 %38, %1
  br i1 %39, label %.loopexit, label %40

40:                                               ; preds = %32
  %.off = add i32 %38, -6
  %switch = icmp ult i32 %.off, 5
  br i1 %switch, label %41, label %43

41:                                               ; preds = %40
  %42 = tail call i32 @H5T_detect_class(ptr noundef nonnull %34, i32 noundef %1, i1 noundef zeroext %2)
  %.not = icmp eq i32 %42, 0
  br i1 %.not, label %43, label %.loopexit

43:                                               ; preds = %40, %41
  %indvars.iv.next = add nuw nsw i64 %indvars.iv, 1
  %exitcond.not = icmp eq i64 %indvars.iv.next, %wide.trip.count
  br i1 %exitcond.not, label %.loopexit, label %32

tailrecurse:                                      ; preds = %.lr.ph, %.lr.ph, %.lr.ph
  %44 = getelementptr inbounds i8, ptr %27, i64 32
  %45 = load ptr, ptr %44, align 8
  %46 = getelementptr inbounds i8, ptr %45, i64 40
  %47 = load ptr, ptr %46, align 8
  %48 = getelementptr inbounds i8, ptr %47, i64 12
  %49 = load i32, ptr %48, align 4
  %50 = icmp eq i32 %49, %1
  br i1 %50, label %.loopexit, label %.lr.ph

.loopexit:                                        ; preds = %tailrecurse, %.lr.ph, %15, %13, %43, %32, %41, %.split, %.preheader, %.split42.us
  %.031 = phi i32 [ %25, %.split42.us ], [ 0, %.preheader ], [ 1, %.split ], [ 0, %43 ], [ 1, %32 ], [ %42, %41 ], [ 1, %13 ], [ 0, %15 ], [ 0, %.lr.ph ], [ 1, %tailrecurse ]
  ret i32 %.031
}